target datalayout = "e-m:e-p270:32:32-p271:32:32-p272:64:64-i64:64-i128:128-f80:128-n8:16:32:64-S128"
target triple = "x86_64-pc-linux-gnu"

%struct.ObjectAddress = type { i32, i32, i32 }
%struct.RelationData = type { %struct.RelFileLocator, ptr, i32, i32, i8, i8, i8, i8, i8, i32, i32, i32, i32, ptr, ptr, i32, %struct.LockInfoData, ptr, ptr, ptr, ptr, ptr, i8, ptr, ptr, ptr, ptr, ptr, ptr, i32, ptr, i8, ptr, ptr, i32, i8, i32, ptr, i8, ptr, ptr, ptr, ptr, ptr, ptr, ptr, i32, ptr, ptr, ptr, ptr, ptr, ptr, ptr, ptr, ptr, ptr, ptr, ptr, ptr, ptr, ptr, ptr, ptr, ptr, ptr, i32, i8, ptr }
%struct.RelFileLocator = type { i32, i32, i32 }
%struct.LockInfoData = type { %struct.LockRelId }
%struct.LockRelId = type { i32, i32 }

@Mode = external global i32, align 4
@MyDatabaseId = external global i32, align 4

; Function Attrs: inlinehint nounwind uwtable
define internal i64 @CharGetDatum(i8 noundef signext %0) #4 {
  %2 = alloca i8, align 1
  store i8 %0, ptr %2, align 1
  %3 = load i8, ptr %2, align 1
  %4 = sext i8 %3 to i64
  ret i64 %4
}

; Function Attrs: inlinehint nounwind uwtable
define internal i64 @Int32GetDatum(i32 noundef %0) #4 {
  %2 = alloca i32, align 4
  store i32 %0, ptr %2, align 4
  %3 = load i32, ptr %2, align 4
  %4 = sext i32 %3 to i64
  ret i64 %4
}

; Function Attrs: inlinehint nounwind uwtable
define internal i64 @ObjectIdGetDatum(i32 noundef %0) #4 {
  %2 = alloca i32, align 4
  store i32 %0, ptr %2, align 4
  %3 = load i32, ptr %2, align 4
  %4 = zext i32 %3 to i64
  ret i64 %4
}

; Function Attrs: nounwind uwtable
define internal i32 @classIdGetDbId(i32 noundef %0) #0 {
  %2 = alloca i32, align 4
  %3 = alloca i32, align 4
  store i32 %0, ptr %2, align 4
  call void @llvm.lifetime.start.p0(i64 4, ptr %3) #7
  %4 = load i32, ptr %2, align 4
  %5 = call zeroext i1 @IsSharedRelation(i32 noundef %4)
  br i1 %5, label %6, label %7

6:                                                ; preds = %1
  store i32 0, ptr %3, align 4
  br label %9

7:                                                ; preds = %1
  %8 = load i32, ptr @MyDatabaseId, align 4
  store i32 %8, ptr %3, align 4
  br label %9

9:                                                ; preds = %7, %6
  %10 = load i32, ptr %3, align 4
  call void @llvm.lifetime.end.p0(i64 4, ptr %3) #7
  ret i32 %10
}

; Function Attrs: nounwind uwtable
define internal void @shdepAddDependency(ptr noundef %0, i32 noundef %1, i32 noundef %2, i32 noundef %3, i32 noundef %4, i32 noundef %5, i32 noundef %6) #0 {
  %8 = alloca ptr, align 8
  %9 = alloca i32, align 4
  %10 = alloca i32, align 4
  %11 = alloca i32, align 4
  %12 = alloca i32, align 4
  %13 = alloca i32, align 4
  %14 = alloca i32, align 4
  %15 = alloca ptr, align 8
  %16 = alloca [7 x i64], align 16
  %17 = alloca [7 x i8], align 1
  store ptr %0, ptr %8, align 8
  store i32 %1, ptr %9, align 4
  store i32 %2, ptr %10, align 4
  store i32 %3, ptr %11, align 4
  store i32 %4, ptr %12, align 4
  store i32 %5, ptr %13, align 4
  store i32 %6, ptr %14, align 4
  call void @llvm.lifetime.start.p0(i64 8, ptr %15) #7
  call void @llvm.lifetime.start.p0(i64 56, ptr %16) #7
  call void @llvm.lifetime.start.p0(i64 7, ptr %17) #7
  %18 = load i32, ptr %12, align 4
  %19 = load i32, ptr %13, align 4
  call void @shdepLockAndCheckObject(i32 noundef %18, i32 noundef %19)
  %20 = getelementptr inbounds [7 x i8], ptr %17, i64 0, i64 0
  call void @llvm.memset.p0.i64(ptr align 1 %20, i8 0, i64 7, i1 false)
  %21 = load i32, ptr %9, align 4
  %22 = call i32 @classIdGetDbId(i32 noundef %21)
  %23 = call i64 @ObjectIdGetDatum(i32 noundef %22)
  %24 = getelementptr inbounds [7 x i64], ptr %16, i64 0, i64 0
  store i64 %23, ptr %24, align 16
  %25 = load i32, ptr %9, align 4
  %26 = call i64 @ObjectIdGetDatum(i32 noundef %25)
  %27 = getelementptr inbounds [7 x i64], ptr %16, i64 0, i64 1
  store i64 %26, ptr %27, align 8
  %28 = load i32, ptr %10, align 4
  %29 = call i64 @ObjectIdGetDatum(i32 noundef %28)
  %30 = getelementptr inbounds [7 x i64], ptr %16, i64 0, i64 2
  store i64 %29, ptr %30, align 16
  %31 = load i32, ptr %11, align 4
  %32 = call i64 @Int32GetDatum(i32 noundef %31)
  %33 = getelementptr inbounds [7 x i64], ptr %16, i64 0, i64 3
  store i64 %32, ptr %33, align 8
  %34 = load i32, ptr %12, align 4
  %35 = call i64 @ObjectIdGetDatum(i32 noundef %34)
  %36 = getelementptr inbounds [7 x i64], ptr %16, i64 0, i64 4
  store i64 %35, ptr %36, align 16
  %37 = load i32, ptr %13, align 4
  %38 = call i64 @ObjectIdGetDatum(i32 noundef %37)
  %39 = getelementptr inbounds [7 x i64], ptr %16, i64 0, i64 5
  store i64 %38, ptr %39, align 8
  %40 = load i32, ptr %14, align 4
  %41 = trunc i32 %40 to i8
  %42 = call i64 @CharGetDatum(i8 noundef signext %41)
  %43 = getelementptr inbounds [7 x i64], ptr %16, i64 0, i64 6
  store i64 %42, ptr %43, align 16
  %44 = load ptr, ptr %8, align 8
  %45 = getelementptr inbounds nuw %struct.RelationData, ptr %44, i32 0, i32 14
  %46 = load ptr, ptr %45, align 8
  %47 = getelementptr inbounds [7 x i64], ptr %16, i64 0, i64 0
  %48 = getelementptr inbounds [7 x i8], ptr %17, i64 0, i64 0
  %49 = call ptr @heap_form_tuple(ptr noundef %46, ptr noundef %47, ptr noundef %48)
  store ptr %49, ptr %15, align 8
  %50 = load ptr, ptr %8, align 8
  %51 = load ptr, ptr %15, align 8
  call void @CatalogTupleInsert(ptr noundef %50, ptr noundef %51)
  %52 = load ptr, ptr %15, align 8
  call void @heap_freetuple(ptr noundef %52)
  call void @llvm.lifetime.end.p0(i64 7, ptr %17) #7
  call void @llvm.lifetime.end.p0(i64 56, ptr %16) #7
  call void @llvm.lifetime.end.p0(i64 8, ptr %15) #7
  ret void
}

; Function Attrs: nounwind uwtable
define dso_local void @recordSharedDependencyOn(ptr noundef %0, ptr noundef %1, i32 noundef %2) #0 {
  %4 = alloca ptr, align 8
  %5 = alloca ptr, align 8
  %6 = alloca i32, align 4
  %7 = alloca ptr, align 8
  %8 = alloca i32, align 4
  store ptr %0, ptr %4, align 8
  store ptr %1, ptr %5, align 8
  store i32 %2, ptr %6, align 4
  call void @llvm.lifetime.start.p0(i64 8, ptr %7) #7
  %9 = load i32, ptr @Mode, align 4
  %10 = icmp eq i32 %9, 0
  br i1 %10, label %11, label %12

11:                                               ; preds = %3
  store i32 1, ptr %8, align 4
  br label %41

12:                                               ; preds = %3
  %13 = call ptr @table_open(i32 noundef 1214, i32 noundef 3)
  store ptr %13, ptr %7, align 8
  %14 = load ptr, ptr %5, align 8
  %15 = getelementptr inbounds nuw %struct.ObjectAddress, ptr %14, i32 0, i32 0
  %16 = load i32, ptr %15, align 4
  %17 = load ptr, ptr %5, align 8
  %18 = getelementptr inbounds nuw %struct.ObjectAddress, ptr %17, i32 0, i32 1
  %19 = load i32, ptr %18, align 4
  %20 = call zeroext i1 @IsPinnedObject(i32 noundef %16, i32 noundef %19)
  br i1 %20, label %39, label %21

21:                                               ; preds = %12
  %22 = load ptr, ptr %7, align 8
  %23 = load ptr, ptr %4, align 8
  %24 = getelementptr inbounds nuw %struct.ObjectAddress, ptr %23, i32 0, i32 0
  %25 = load i32, ptr %24, align 4
  %26 = load ptr, ptr %4, align 8
  %27 = getelementptr inbounds nuw %struct.ObjectAddress, ptr %26, i32 0, i32 1
  %28 = load i32, ptr %27, align 4
  %29 = load ptr, ptr %4, align 8
  %30 = getelementptr inbounds nuw %struct.ObjectAddress, ptr %29, i32 0, i32 2
  %31 = load i32, ptr %30, align 4
  %32 = load ptr, ptr %5, align 8
  %33 = getelementptr inbounds nuw %struct.ObjectAddress, ptr %32, i32 0, i32 0
  %34 = load i32, ptr %33, align 4
  %35 = load ptr, ptr %5, align 8
  %36 = getelementptr inbounds nuw %struct.ObjectAddress, ptr %35, i32 0, i32 1
  %37 = load i32, ptr %36, align 4
  %38 = load i32, ptr %6, align 4
  call void @shdepAddDependency(ptr noundef %22, i32 noundef %25, i32 noundef %28, i32 noundef %31, i32 noundef %34, i32 noundef %37, i32 noundef %38)
  br label %39

39:                                               ; preds = %21, %12
  %40 = load ptr, ptr %7, align 8
  call void @table_close(ptr noundef %40, i32 noundef 3)
  store i32 0, ptr %8, align 4
  br label %41

41:                                               ; preds = %39, %11
  call void @llvm.lifetime.end.p0(i64 8, ptr %7) #7
  %42 = load i32, ptr %8, align 4
  switch i32 %42, label %44 [
    i32 0, label %43
    i32 1, label %43
  ]

43:                                               ; preds = %41, %41
  ret void

44:                                               ; preds = %41
  unreachable
}