; Function Attrs: nounwind uwtable
define dso_local void @recordSharedDependencyOn(ptr noundef readonly captures(none) %0, ptr noundef readonly captures(none) %1, i32 noundef %2) local_unnamed_addr #0 {
  %4 = alloca [7 x i64], align 16
  %5 = alloca [7 x i8], align 1
  %6 = load i32, ptr @Mode, align 4
  %7 = icmp eq i32 %6, 0
  br i1 %7, label %43, label %8

8:                                                ; preds = %3
  %9 = tail call ptr @table_open(i32 noundef 1214, i32 noundef 3) #8
  %10 = load i32, ptr %1, align 4
  %11 = getelementptr inbounds nuw i8, ptr %1, i64 4
  %12 = load i32, ptr %11, align 4
  %13 = tail call zeroext i1 @IsPinnedObject(i32 noundef %10, i32 noundef %12) #8
  br i1 %13, label %42, label %14

14:                                               ; preds = %8
  %15 = load i32, ptr %0, align 4
  %16 = getelementptr inbounds nuw i8, ptr %0, i64 4
  %17 = load i32, ptr %16, align 4
  %18 = getelementptr inbounds nuw i8, ptr %0, i64 8
  %19 = load i32, ptr %18, align 4
  %20 = load i32, ptr %1, align 4
  %21 = load i32, ptr %11, align 4
  call void @llvm.lifetime.start.p0(i64 56, ptr nonnull %4) #8
  call void @llvm.lifetime.start.p0(i64 7, ptr nonnull %5) #8
  tail call void @shdepLockAndCheckObject(i32 noundef %20, i32 noundef %21)
  call void @llvm.memset.p0.i64(ptr noundef nonnull align 1 dereferenceable(7) %5, i8 0, i64 7, i1 false)
  %22 = tail call zeroext i1 @IsSharedRelation(i32 noundef %15) #8
  %23 = load i32, ptr @MyDatabaseId, align 4
  %24 = zext i32 %23 to i64
  %25 = select i1 %22, i64 0, i64 %24
  store i64 %25, ptr %4, align 16
  %26 = zext i32 %15 to i64
  %27 = getelementptr inbounds nuw i8, ptr %4, i64 8
  store i64 %26, ptr %27, align 8
  %28 = zext i32 %17 to i64
  %29 = getelementptr inbounds nuw i8, ptr %4, i64 16
  store i64 %28, ptr %29, align 16
  %30 = sext i32 %19 to i64
  %31 = getelementptr inbounds nuw i8, ptr %4, i64 24
  store i64 %30, ptr %31, align 8
  %32 = zext i32 %20 to i64
  %33 = getelementptr inbounds nuw i8, ptr %4, i64 32
  store i64 %32, ptr %33, align 16
  %34 = zext i32 %21 to i64
  %35 = getelementptr inbounds nuw i8, ptr %4, i64 40
  store i64 %34, ptr %35, align 8
  %36 = zext i32 %2 to i64
  %sext.i = shl i64 %36, 56
  %37 = ashr exact i64 %sext.i, 56
  %38 = getelementptr inbounds nuw i8, ptr %4, i64 48
  store i64 %37, ptr %38, align 16
  %39 = getelementptr inbounds nuw i8, ptr %9, i64 64
  %40 = load ptr, ptr %39, align 8
  %41 = call ptr @heap_form_tuple(ptr noundef %40, ptr noundef nonnull %4, ptr noundef nonnull %5) #8
  call void @CatalogTupleInsert(ptr noundef %9, ptr noundef %41) #8
  call void @heap_freetuple(ptr noundef %41) #8
  call void @llvm.lifetime.end.p0(i64 7, ptr nonnull %5) #8
  call void @llvm.lifetime.end.p0(i64 56, ptr nonnull %4) #8
  br label %42

42:                                               ; preds = %14, %8
  call void @table_close(ptr noundef %9, i32 noundef 3) #8
  br label %43

43:                                               ; preds = %3, %42
  ret void
}